target datalayout = "e-m:e-p270:32:32-p271:32:32-p272:64:64-i64:64-i128:128-f80:128-n8:16:32:64-S128"
target triple = "x86_64-pc-linux-gnu"

%struct.darktable_t = type { %struct.dt_codepath_t, i32, i32, ptr, ptr, ptr, ptr, ptr, ptr, ptr, ptr, ptr, ptr, ptr, ptr, ptr, ptr, ptr, ptr, ptr, ptr, ptr, ptr, ptr, ptr, ptr, ptr, ptr, ptr, ptr, [64 x %struct.dt_pthread_mutex_t], %struct.dt_pthread_mutex_t, %struct.dt_pthread_mutex_t, %struct.dt_pthread_mutex_t, %struct.dt_pthread_mutex_t, %struct.dt_pthread_mutex_t, ptr, ptr, ptr, ptr, ptr, ptr, ptr, ptr, ptr, ptr, ptr, ptr, ptr, %struct.dt_lua_state_t, ptr, double, ptr, i32, [47 x i32], i32, i32, ptr, ptr, %struct.dt_sys_resources_t, %struct.dt_backthumb_t, %struct.dt_gimp_t }
%struct.dt_codepath_t = type { i8, [3 x i8] }
%struct.dt_pthread_mutex_t = type { %union.pthread_mutex_t }
%union.pthread_mutex_t = type { %struct.__pthread_mutex_s }
%struct.__pthread_mutex_s = type { i32, i32, i32, i32, i32, i16, i16, %struct.__pthread_internal_list }
%struct.__pthread_internal_list = type { ptr, ptr }
%struct.dt_lua_state_t = type { i32 }
%struct.dt_sys_resources_t = type { i64, i64, ptr, ptr, i32 }
%struct.dt_backthumb_t = type { double, double, i32, i32, i32, i32 }
%struct.dt_gimp_t = type { i32, ptr, ptr, i32, i32 }
%struct.dt_control_image_enumerator_t = type { ptr, i32, ptr, i32 }

@darktable = external global %struct.darktable_t, align 8
@.str.10 = private unnamed_addr constant [14 x i8] c"delete images\00", align 1
@.str.11 = private unnamed_addr constant [14 x i8] c"send_to_trash\00", align 1
@.str.12 = private unnamed_addr constant [18 x i8] c"ask_before_delete\00", align 1
@.str.13 = private unnamed_addr constant [14 x i8] c"delete image?\00", align 1
@.str.19 = private unnamed_addr constant [82 x i8] c"do you really want to physically delete selected image (using trash if possible)?\00", align 1
@.str.20 = private unnamed_addr constant [66 x i8] c"do you really want to physically delete selected image from disk?\00", align 1
@.str.53 = private unnamed_addr constant [3 x i8] c"%s\00", align 1

; Function Attrs: nounwind uwtable
define internal ptr @dt_control_image_enumerator_alloc() #0 {
  %1 = alloca ptr, align 8
  %2 = alloca ptr, align 8
  %3 = alloca i32, align 4
  call void @llvm.lifetime.start.p0(i64 8, ptr %2) #14
  %4 = call noalias ptr @calloc(i64 noundef 1, i64 noundef 32) #19
  store ptr %4, ptr %2, align 8, !tbaa !53
  %5 = load ptr, ptr %2, align 8, !tbaa !53
  %6 = icmp ne ptr %5, null
  br i1 %6, label %8, label %7

7:                                                ; preds = %0
  store ptr null, ptr %1, align 8
  store i32 1, ptr %3, align 4
  br label %10

8:                                                ; preds = %0
  %9 = load ptr, ptr %2, align 8, !tbaa !53
  store ptr %9, ptr %1, align 8
  store i32 1, ptr %3, align 4
  br label %10

10:                                               ; preds = %8, %7
  call void @llvm.lifetime.end.p0(i64 8, ptr %2) #14
  %11 = load ptr, ptr %1, align 8
  ret ptr %11
}

; Function Attrs: nounwind uwtable
define internal ptr @dt_control_generic_image_job_create(ptr noundef %0, ptr noundef %1, i32 noundef %2, ptr noundef %3, i32 noundef %4, i32 noundef %5) #0 {
  %7 = alloca ptr, align 8
  %8 = alloca ptr, align 8
  %9 = alloca ptr, align 8
  %10 = alloca i32, align 4
  %11 = alloca ptr, align 8
  %12 = alloca i32, align 4
  %13 = alloca i32, align 4
  %14 = alloca ptr, align 8
  %15 = alloca i32, align 4
  %16 = alloca ptr, align 8
  store ptr %0, ptr %8, align 8, !tbaa !6
  store ptr %1, ptr %9, align 8, !tbaa !49
  store i32 %2, ptr %10, align 4, !tbaa !50
  store ptr %3, ptr %11, align 8, !tbaa !6
  store i32 %4, ptr %12, align 4, !tbaa !50
  store i32 %5, ptr %13, align 4, !tbaa !50
  call void @llvm.lifetime.start.p0(i64 8, ptr %14) #14
  %17 = load ptr, ptr %8, align 8, !tbaa !6
  %18 = load ptr, ptr %9, align 8, !tbaa !49
  %19 = call ptr (ptr, ptr, ...) @dt_control_job_create(ptr noundef %17, ptr noundef @.str.53, ptr noundef %18)
  store ptr %19, ptr %14, align 8, !tbaa !51
  %20 = load ptr, ptr %14, align 8, !tbaa !51
  %21 = icmp ne ptr %20, null
  br i1 %21, label %23, label %22

22:                                               ; preds = %6
  store ptr null, ptr %7, align 8
  store i32 1, ptr %15, align 4
  br label %56

23:                                               ; preds = %6
  call void @llvm.lifetime.start.p0(i64 8, ptr %16) #14
  %24 = call ptr @dt_control_image_enumerator_alloc()
  store ptr %24, ptr %16, align 8, !tbaa !53
  %25 = load ptr, ptr %16, align 8, !tbaa !53
  %26 = icmp ne ptr %25, null
  br i1 %26, label %29, label %27

27:                                               ; preds = %23
  %28 = load ptr, ptr %14, align 8, !tbaa !51
  call void @dt_control_job_dispose(ptr noundef %28)
  store ptr null, ptr %7, align 8
  store i32 1, ptr %15, align 4
  br label %55

29:                                               ; preds = %23
  %30 = load i32, ptr %12, align 4, !tbaa !50
  %31 = icmp ne i32 %30, 0
  br i1 %31, label %32, label %39

32:                                               ; preds = %29
  %33 = load ptr, ptr %14, align 8, !tbaa !51
  %34 = load ptr, ptr %9, align 8, !tbaa !49
  %35 = call ptr @dcgettext(ptr noundef null, ptr noundef %34, i32 noundef 5) #14
  %36 = load i32, ptr %12, align 4, !tbaa !50
  %37 = icmp eq i32 %36, 2
  %38 = zext i1 %37 to i32
  call void @dt_control_job_add_progress(ptr noundef %33, ptr noundef %35, i32 noundef %38)
  br label %39

39:                                               ; preds = %32, %29
  %40 = load i32, ptr %13, align 4, !tbaa !50
  %41 = sext i32 %40 to i64
  %42 = inttoptr i64 %41 to ptr
  %43 = call ptr @g_list_append(ptr noundef null, ptr noundef %42)
  %44 = load ptr, ptr %16, align 8, !tbaa !53
  %45 = getelementptr inbounds nuw %struct.dt_control_image_enumerator_t, ptr %44, i32 0, i32 0
  store ptr %43, ptr %45, align 8, !tbaa !57
  %46 = load ptr, ptr %14, align 8, !tbaa !51
  %47 = load ptr, ptr %16, align 8, !tbaa !53
  call void @dt_control_job_set_params(ptr noundef %46, ptr noundef %47, ptr noundef @dt_control_image_enumerator_cleanup)
  %48 = load i32, ptr %10, align 4, !tbaa !50
  %49 = load ptr, ptr %16, align 8, !tbaa !53
  %50 = getelementptr inbounds nuw %struct.dt_control_image_enumerator_t, ptr %49, i32 0, i32 1
  store i32 %48, ptr %50, align 8, !tbaa !58
  %51 = load ptr, ptr %11, align 8, !tbaa !6
  %52 = load ptr, ptr %16, align 8, !tbaa !53
  %53 = getelementptr inbounds nuw %struct.dt_control_image_enumerator_t, ptr %52, i32 0, i32 2
  store ptr %51, ptr %53, align 8, !tbaa !59
  %54 = load ptr, ptr %14, align 8, !tbaa !51
  store ptr %54, ptr %7, align 8
  store i32 1, ptr %15, align 4
  br label %55

55:                                               ; preds = %39, %27
  call void @llvm.lifetime.end.p0(i64 8, ptr %16) #14
  br label %56

56:                                               ; preds = %55, %22
  call void @llvm.lifetime.end.p0(i64 8, ptr %14) #14
  %57 = load ptr, ptr %7, align 8
  ret ptr %57
}

; Function Attrs: nounwind uwtable
define void @dt_control_delete_image(i32 noundef %0) #0 {
  %2 = alloca i32, align 4
  %3 = alloca ptr, align 8
  %4 = alloca i32, align 4
  %5 = alloca i32, align 4
  store i32 %0, ptr %2, align 4, !tbaa !50
  call void @llvm.lifetime.start.p0(i64 8, ptr %3) #14
  %6 = load i32, ptr %2, align 4, !tbaa !50
  %7 = call ptr @dt_control_generic_image_job_create(ptr noundef @dt_control_delete_images_job_run, ptr noundef @.str.10, i32 noundef 0, ptr noundef null, i32 noundef 1, i32 noundef %6)
  store ptr %7, ptr %3, align 8, !tbaa !51
  call void @llvm.lifetime.start.p0(i64 4, ptr %4) #14
  %8 = call i32 @dt_conf_get_bool(ptr noundef @.str.11)
  store i32 %8, ptr %4, align 4, !tbaa !50
  %9 = call i32 @dt_conf_get_bool(ptr noundef @.str.12)
  %10 = icmp ne i32 %9, 0
  br i1 %10, label %11, label %31

11:                                               ; preds = %1
  %12 = load i32, ptr %2, align 4, !tbaa !50
  %13 = icmp sgt i32 %12, 0
  br i1 %13, label %16, label %14

14:                                               ; preds = %11
  %15 = load ptr, ptr %3, align 8, !tbaa !51
  call void @dt_control_job_dispose(ptr noundef %15)
  store i32 1, ptr %5, align 4
  br label %35

16:                                               ; preds = %11
  %17 = call ptr @dcgettext(ptr noundef null, ptr noundef @.str.13, i32 noundef 5) #14
  %18 = load i32, ptr %4, align 4, !tbaa !50
  %19 = icmp ne i32 %18, 0
  br i1 %19, label %20, label %22

20:                                               ; preds = %16
  %21 = call ptr @dcgettext(ptr noundef null, ptr noundef @.str.19, i32 noundef 5) #14
  br label %24

22:                                               ; preds = %16
  %23 = call ptr @dcgettext(ptr noundef null, ptr noundef @.str.20, i32 noundef 5) #14
  br label %24

24:                                               ; preds = %22, %20
  %25 = phi ptr [ %21, %20 ], [ %23, %22 ]
  %26 = call i32 (ptr, ptr, ...) @dt_gui_show_yes_no_dialog(ptr noundef %17, ptr noundef %25)
  %27 = icmp ne i32 %26, 0
  br i1 %27, label %30, label %28

28:                                               ; preds = %24
  %29 = load ptr, ptr %3, align 8, !tbaa !51
  call void @dt_control_job_dispose(ptr noundef %29)
  store i32 1, ptr %5, align 4
  br label %35

30:                                               ; preds = %24
  br label %31

31:                                               ; preds = %30, %1
  %32 = load ptr, ptr getelementptr inbounds nuw (%struct.darktable_t, ptr @darktable, i32 0, i32 12), align 8, !tbaa !10
  %33 = load ptr, ptr %3, align 8, !tbaa !51
  %34 = call i32 @dt_control_add_job(ptr noundef %32, i32 noundef 0, ptr noundef %33)
  store i32 0, ptr %5, align 4
  br label %35

35:                                               ; preds = %31, %28, %14
  call void @llvm.lifetime.end.p0(i64 4, ptr %4) #14
  call void @llvm.lifetime.end.p0(i64 8, ptr %3) #14
  %36 = load i32, ptr %5, align 4
  switch i32 %36, label %38 [
    i32 0, label %37
    i32 1, label %37
  ]

37:                                               ; preds = %35, %35
  ret void

38:                                               ; preds = %35
  unreachable
}