; Function Attrs: nounwind uwtable
define void @dt_control_delete_image(i32 noundef %0) local_unnamed_addr #0 {
  %2 = tail call ptr (ptr, ptr, ...) @dt_control_job_create(ptr noundef nonnull @dt_control_delete_images_job_run, ptr noundef nonnull @.str.53, ptr noundef nonnull @.str.10) #17
  %.not.i = icmp eq ptr %2, null
  br i1 %.not.i, label %dt_control_generic_image_job_create.exit, label %3

3:                                                ; preds = %1
  %4 = tail call noalias noundef dereferenceable_or_null(32) ptr @calloc(i64 noundef 1, i64 noundef 32) #18
  %.not21.i = icmp eq ptr %4, null
  br i1 %.not21.i, label %5, label %6

5:                                                ; preds = %3
  tail call void @dt_control_job_dispose(ptr noundef nonnull %2) #17
  br label %dt_control_generic_image_job_create.exit

6:                                                ; preds = %3
  %7 = tail call ptr @dcgettext(ptr noundef null, ptr noundef nonnull @.str.10, i32 noundef 5) #17
  tail call void @dt_control_job_add_progress(ptr noundef nonnull %2, ptr noundef %7, i32 noundef 0) #17
  %8 = sext i32 %0 to i64
  %9 = inttoptr i64 %8 to ptr
  %10 = tail call ptr @g_list_append(ptr noundef null, ptr noundef %9) #17
  store ptr %10, ptr %4, align 8, !tbaa !50
  tail call void @dt_control_job_set_params(ptr noundef nonnull %2, ptr noundef nonnull %4, ptr noundef nonnull @dt_control_image_enumerator_cleanup) #17
  %11 = getelementptr inbounds nuw i8, ptr %4, i64 8
  store i32 0, ptr %11, align 8, !tbaa !51
  %12 = getelementptr inbounds nuw i8, ptr %4, i64 16
  store ptr null, ptr %12, align 8, !tbaa !52
  br label %dt_control_generic_image_job_create.exit

dt_control_generic_image_job_create.exit:         ; preds = %1, %5, %6
  %.0.i = phi ptr [ null, %1 ], [ %2, %6 ], [ null, %5 ]
  %13 = tail call i32 @dt_conf_get_bool(ptr noundef nonnull @.str.11) #17
  %14 = tail call i32 @dt_conf_get_bool(ptr noundef nonnull @.str.12) #17
  %.not = icmp eq i32 %14, 0
  br i1 %.not, label %23, label %15

15:                                               ; preds = %dt_control_generic_image_job_create.exit
  %16 = icmp sgt i32 %0, 0
  br i1 %16, label %18, label %17

17:                                               ; preds = %15
  tail call void @dt_control_job_dispose(ptr noundef %.0.i) #17
  br label %26

18:                                               ; preds = %15
  %19 = tail call ptr @dcgettext(ptr noundef null, ptr noundef nonnull @.str.13, i32 noundef 5) #17
  %.not5 = icmp eq i32 %13, 0
  %.str.20..str.19 = select i1 %.not5, ptr @.str.20, ptr @.str.19
  %20 = tail call ptr @dcgettext(ptr noundef null, ptr noundef nonnull %.str.20..str.19, i32 noundef 5) #17
  %21 = tail call i32 (ptr, ptr, ...) @dt_gui_show_yes_no_dialog(ptr noundef %19, ptr noundef %20) #17
  %.not6 = icmp eq i32 %21, 0
  br i1 %.not6, label %22, label %23

22:                                               ; preds = %18
  tail call void @dt_control_job_dispose(ptr noundef %.0.i) #17
  br label %26

23:                                               ; preds = %18, %dt_control_generic_image_job_create.exit
  %24 = load ptr, ptr getelementptr inbounds nuw (i8, ptr @darktable, i64 88), align 8, !tbaa !6
  %25 = tail call i32 @dt_control_add_job(ptr noundef %24, i32 noundef 0, ptr noundef %.0.i) #17
  br label %26

26:                                               ; preds = %23, %22, %17
  ret void
}